; Function Attrs: mustprogress nounwind uwtable
define internal fastcc noundef zeroext i1 @_ZNK12_GLOBAL__N_118ObjCDeallocChecker27isReleasedByCIFilterDeallocEPKN5clang20ObjCPropertyImplDeclE(ptr nocapture noundef nonnull readonly align 8 dereferenceable(400) %0, ptr nocapture noundef readonly %1) unnamed_addr #0 align 2 {
  %3 = getelementptr inbounds nuw i8, ptr %1, i64 48
  %4 = load ptr, ptr %3, align 8
  %5 = getelementptr inbounds nuw i8, ptr %4, i64 40
  %6 = load i64, ptr %5, align 8
  %7 = and i64 %6, 7
  %8 = icmp ne i64 %7, 0
  %9 = and i64 %6, -8
  %.not2.i = icmp eq i64 %9, 0
  %.not.i = or i1 %8, %.not2.i
  br i1 %.not.i, label %_ZNK5clang9NamedDecl7getNameEv.exit, label %10

10:                                               ; preds = %2
  %11 = inttoptr i64 %9 to ptr
  %12 = getelementptr inbounds nuw i8, ptr %11, i64 16
  %13 = load ptr, ptr %12, align 8
  %14 = getelementptr inbounds i8, ptr %13, i64 16
  %15 = load i64, ptr %13, align 8
  %16 = and i64 %15, 4294967295
  %17 = icmp ult i64 %16, 5
  br label %_ZNK5clang9NamedDecl7getNameEv.exit

_ZNK5clang9NamedDecl7getNameEv.exit:              ; preds = %2, %10
  %.sroa.3.0.i = phi i1 [ %17, %10 ], [ true, %2 ]
  %.sroa.0.0.i = phi ptr [ %14, %10 ], [ @.str.17, %2 ]
  %18 = getelementptr inbounds nuw i8, ptr %1, i64 56
  %19 = load ptr, ptr %18, align 8
  %20 = getelementptr inbounds nuw i8, ptr %19, i64 40
  %21 = load i64, ptr %20, align 8
  %22 = and i64 %21, 7
  %23 = icmp ne i64 %22, 0
  %24 = and i64 %21, -8
  %.not2.i12 = icmp eq i64 %24, 0
  %.not.i13 = or i1 %23, %.not2.i12
  br i1 %.not.i13, label %_ZNK5clang9NamedDecl7getNameEv.exit18, label %25

25:                                               ; preds = %_ZNK5clang9NamedDecl7getNameEv.exit
  %26 = inttoptr i64 %24 to ptr
  %27 = getelementptr inbounds nuw i8, ptr %26, i64 16
  %28 = load ptr, ptr %27, align 8
  %29 = getelementptr inbounds i8, ptr %28, i64 16
  %30 = load i64, ptr %28, align 8
  %31 = and i64 %30, 4294967295
  %32 = icmp ult i64 %31, 5
  br label %_ZNK5clang9NamedDecl7getNameEv.exit18

_ZNK5clang9NamedDecl7getNameEv.exit18:            ; preds = %_ZNK5clang9NamedDecl7getNameEv.exit, %25
  %.sroa.3.0.i14 = phi i1 [ %32, %25 ], [ true, %_ZNK5clang9NamedDecl7getNameEv.exit ]
  %.sroa.0.0.i15 = phi ptr [ %29, %25 ], [ @.str.17, %_ZNK5clang9NamedDecl7getNameEv.exit ]
  br i1 %.sroa.3.0.i, label %_ZNK4llvm9StringRef11starts_withES0_.exit.thread29, label %_ZNK4llvm9StringRef11starts_withES0_.exit

_ZNK4llvm9StringRef11starts_withES0_.exit:        ; preds = %_ZNK5clang9NamedDecl7getNameEv.exit18
  %bcmp.i = tail call i32 @bcmp(ptr noundef nonnull dereferenceable(5) %.sroa.0.0.i, ptr noundef nonnull dereferenceable(5) @.str.16, i64 5)
  %33 = icmp eq i32 %bcmp.i, 0
  br i1 %33, label %_ZNK4llvm9StringRef11starts_withES0_.exit.thread, label %_ZNK4llvm9StringRef11starts_withES0_.exit.thread29

_ZNK4llvm9StringRef11starts_withES0_.exit.thread29: ; preds = %_ZNK5clang9NamedDecl7getNameEv.exit18, %_ZNK4llvm9StringRef11starts_withES0_.exit
  br i1 %.sroa.3.0.i14, label %_ZNK4llvm9StringRef11starts_withES0_.exit22.thread, label %_ZNK4llvm9StringRef11starts_withES0_.exit22

_ZNK4llvm9StringRef11starts_withES0_.exit22:      ; preds = %_ZNK4llvm9StringRef11starts_withES0_.exit.thread29
  %bcmp.i21 = tail call i32 @bcmp(ptr noundef nonnull dereferenceable(5) %.sroa.0.0.i15, ptr noundef nonnull dereferenceable(5) @.str.16, i64 5)
  %34 = icmp eq i32 %bcmp.i21, 0
  br i1 %34, label %_ZNK4llvm9StringRef11starts_withES0_.exit.thread, label %_ZNK4llvm9StringRef11starts_withES0_.exit22.thread

_ZNK4llvm9StringRef11starts_withES0_.exit.thread: ; preds = %_ZNK4llvm9StringRef11starts_withES0_.exit22, %_ZNK4llvm9StringRef11starts_withES0_.exit
  %35 = tail call noundef ptr @_ZN5clang12ObjCIvarDecl22getContainingInterfaceEv(ptr noundef nonnull align 8 dereferenceable(89) %19) #18
  %.not30 = icmp eq ptr %35, null
  br i1 %.not30, label %_ZNK4llvm9StringRef11starts_withES0_.exit22.thread, label %.lr.ph

.lr.ph:                                           ; preds = %_ZNK4llvm9StringRef11starts_withES0_.exit.thread
  %36 = getelementptr inbounds nuw i8, ptr %0, i64 64
  br label %37

37:                                               ; preds = %.lr.ph, %46
  %.01131 = phi ptr [ %35, %.lr.ph ], [ %47, %46 ]
  %38 = getelementptr inbounds nuw i8, ptr %.01131, i64 40
  %39 = load i64, ptr %38, align 8
  %40 = and i64 %39, 7
  %41 = icmp eq i64 %40, 0
  %42 = and i64 %39, -8
  %43 = inttoptr i64 %42 to ptr
  %.0.i.i = select i1 %41, ptr %43, ptr null
  %44 = load ptr, ptr %36, align 8
  %45 = icmp eq ptr %.0.i.i, %44
  br i1 %45, label %_ZNK4llvm9StringRef11starts_withES0_.exit22.thread, label %46

46:                                               ; preds = %37
  %47 = tail call noundef ptr @_ZNK5clang17ObjCInterfaceDecl13getSuperClassEv(ptr noundef nonnull align 8 dereferenceable(128) %.01131) #18
  %.not = icmp eq ptr %47, null
  br i1 %.not, label %_ZNK4llvm9StringRef11starts_withES0_.exit22.thread, label %37, !llvm.loop !18

_ZNK4llvm9StringRef11starts_withES0_.exit22.thread: ; preds = %37, %46, %_ZNK4llvm9StringRef11starts_withES0_.exit.thread, %_ZNK4llvm9StringRef11starts_withES0_.exit.thread29, %_ZNK4llvm9StringRef11starts_withES0_.exit22
  %.0 = phi i1 [ false, %_ZNK4llvm9StringRef11starts_withES0_.exit22 ], [ false, %_ZNK4llvm9StringRef11starts_withES0_.exit.thread29 ], [ false, %_ZNK4llvm9StringRef11starts_withES0_.exit.thread ], [ %45, %46 ], [ %45, %37 ]
  ret i1 %.0
}